target datalayout = "e-m:e-p270:32:32-p271:32:32-p272:64:64-i64:64-i128:128-f80:128-n8:16:32:64-S128"
target triple = "x86_64-pc-linux-gnu"

%struct.AVFilterContext = type { ptr, ptr, ptr, ptr, ptr, i32, ptr, ptr, i32, ptr, ptr, i32, i32, ptr, ptr, ptr, ptr, i32, ptr, i32, i32 }
%struct.VarBlurContext = type { ptr, %struct.FFFrameSync, i32, i32, i32, i32, [4 x i32], [4 x i32], [4 x ptr], [4 x i32], i32, ptr, ptr }
%struct.FFFrameSync = type { ptr, ptr, i32, %struct.AVRational, i64, ptr, ptr, i32, i32, i8, i8, ptr, i32, i32, i32, i32 }
%struct.AVRational = type { i32, i32 }
%struct.AVFilterLink = type { ptr, ptr, ptr, ptr, i32, i32, i32, i32, %struct.AVRational, i32, i32, i32, %struct.AVChannelLayout, %struct.AVRational, ptr, i32, %struct.AVFilterFormatsConfig, %struct.AVFilterFormatsConfig }
%struct.AVChannelLayout = type { i32, i32, %union.anon.1, ptr }
%union.anon.1 = type { i64 }
%struct.AVFilterFormatsConfig = type { ptr, ptr, ptr, ptr, ptr }
%struct.ThreadData = type { ptr, ptr, ptr }
%struct.AVFrame = type { [8 x ptr], [8 x i32], ptr, i32, i32, i32, i32, i32, %struct.AVRational, i64, i64, %struct.AVRational, i32, ptr, i32, i32, [8 x ptr], ptr, i32, ptr, i32, i32, i32, i32, i32, i32, i32, i64, ptr, i32, ptr, ptr, i64, i64, i64, i64, ptr, %struct.AVChannelLayout, i64 }

; Function Attrs: nounwind uwtable
define internal i32 @blur_frame(ptr noundef %0, ptr noundef %1, ptr noundef %2) #0 {
  %4 = alloca i32, align 4
  %5 = alloca ptr, align 8
  %6 = alloca ptr, align 8
  %7 = alloca ptr, align 8
  %8 = alloca ptr, align 8
  %9 = alloca ptr, align 8
  %10 = alloca %struct.ThreadData, align 8
  %11 = alloca ptr, align 8
  %12 = alloca i32, align 4
  %13 = alloca i32, align 4
  %14 = alloca i32, align 4
  %15 = alloca i32, align 4
  %16 = alloca i32, align 4
  %17 = alloca ptr, align 8
  %18 = alloca i32, align 4
  %19 = alloca ptr, align 8
  store ptr %0, ptr %5, align 8, !tbaa !4
  store ptr %1, ptr %6, align 8, !tbaa !99
  store ptr %2, ptr %7, align 8, !tbaa !99
  call void @llvm.lifetime.start.p0(i64 8, ptr %8) #10
  %20 = load ptr, ptr %5, align 8, !tbaa !4
  %21 = getelementptr inbounds nuw %struct.AVFilterContext, ptr %20, i32 0, i32 9
  %22 = load ptr, ptr %21, align 8, !tbaa !9
  store ptr %22, ptr %8, align 8, !tbaa !22
  call void @llvm.lifetime.start.p0(i64 8, ptr %9) #10
  %23 = load ptr, ptr %5, align 8, !tbaa !4
  %24 = getelementptr inbounds nuw %struct.AVFilterContext, ptr %23, i32 0, i32 7
  %25 = load ptr, ptr %24, align 8, !tbaa !101
  %26 = getelementptr inbounds ptr, ptr %25, i64 0
  %27 = load ptr, ptr %26, align 8, !tbaa !27
  store ptr %27, ptr %9, align 8, !tbaa !27
  call void @llvm.lifetime.start.p0(i64 24, ptr %10) #10
  call void @llvm.lifetime.start.p0(i64 8, ptr %11) #10
  %28 = load ptr, ptr %6, align 8, !tbaa !99
  %29 = call i32 @av_frame_is_writable(ptr noundef %28)
  %30 = icmp ne i32 %29, 0
  br i1 %30, label %31, label %33

31:                                               ; preds = %3
  %32 = load ptr, ptr %6, align 8, !tbaa !99
  store ptr %32, ptr %11, align 8, !tbaa !99
  br label %49

33:                                               ; preds = %3
  %34 = load ptr, ptr %9, align 8, !tbaa !27
  %35 = load ptr, ptr %9, align 8, !tbaa !27
  %36 = getelementptr inbounds nuw %struct.AVFilterLink, ptr %35, i32 0, i32 6
  %37 = load i32, ptr %36, align 8, !tbaa !43
  %38 = load ptr, ptr %9, align 8, !tbaa !27
  %39 = getelementptr inbounds nuw %struct.AVFilterLink, ptr %38, i32 0, i32 7
  %40 = load i32, ptr %39, align 4, !tbaa !44
  %41 = call ptr @ff_get_video_buffer(ptr noundef %34, i32 noundef %37, i32 noundef %40)
  store ptr %41, ptr %11, align 8, !tbaa !99
  %42 = load ptr, ptr %11, align 8, !tbaa !99
  %43 = icmp ne ptr %42, null
  br i1 %43, label %45, label %44

44:                                               ; preds = %33
  call void @av_frame_free(ptr noundef %6)
  store i32 -12, ptr %4, align 4
  store i32 1, ptr %12, align 4
  br label %152

45:                                               ; preds = %33
  %46 = load ptr, ptr %11, align 8, !tbaa !99
  %47 = load ptr, ptr %6, align 8, !tbaa !99
  %48 = call i32 @av_frame_copy_props(ptr noundef %46, ptr noundef %47)
  br label %49

49:                                               ; preds = %45, %31
  call void @llvm.lifetime.start.p0(i64 4, ptr %13) #10
  store i32 0, ptr %13, align 4, !tbaa !24
  br label %50

50:                                               ; preds = %115, %49
  %51 = load i32, ptr %13, align 4, !tbaa !24
  %52 = load ptr, ptr %8, align 8, !tbaa !22
  %53 = getelementptr inbounds nuw %struct.VarBlurContext, ptr %52, i32 0, i32 10
  %54 = load i32, ptr %53, align 8, !tbaa !61
  %55 = icmp slt i32 %51, %54
  br i1 %55, label %57, label %56

56:                                               ; preds = %50
  store i32 2, ptr %12, align 4
  call void @llvm.lifetime.end.p0(i64 4, ptr %13) #10
  br label %118

57:                                               ; preds = %50
  call void @llvm.lifetime.start.p0(i64 4, ptr %14) #10
  %58 = load ptr, ptr %8, align 8, !tbaa !22
  %59 = getelementptr inbounds nuw %struct.VarBlurContext, ptr %58, i32 0, i32 7
  %60 = load i32, ptr %13, align 4, !tbaa !24
  %61 = sext i32 %60 to i64
  %62 = getelementptr inbounds [4 x i32], ptr %59, i64 0, i64 %61
  %63 = load i32, ptr %62, align 4, !tbaa !24
  store i32 %63, ptr %14, align 4, !tbaa !24
  call void @llvm.lifetime.start.p0(i64 4, ptr %15) #10
  %64 = load ptr, ptr %8, align 8, !tbaa !22
  %65 = getelementptr inbounds nuw %struct.VarBlurContext, ptr %64, i32 0, i32 6
  %66 = load i32, ptr %13, align 4, !tbaa !24
  %67 = sext i32 %66 to i64
  %68 = getelementptr inbounds [4 x i32], ptr %65, i64 0, i64 %67
  %69 = load i32, ptr %68, align 4, !tbaa !24
  store i32 %69, ptr %15, align 4, !tbaa !24
  call void @llvm.lifetime.start.p0(i64 4, ptr %16) #10
  %70 = load ptr, ptr %6, align 8, !tbaa !99
  %71 = getelementptr inbounds nuw %struct.AVFrame, ptr %70, i32 0, i32 1
  %72 = load i32, ptr %13, align 4, !tbaa !24
  %73 = sext i32 %72 to i64
  %74 = getelementptr inbounds [8 x i32], ptr %71, i64 0, i64 %73
  %75 = load i32, ptr %74, align 4, !tbaa !24
  store i32 %75, ptr %16, align 4, !tbaa !24
  call void @llvm.lifetime.start.p0(i64 8, ptr %17) #10
  %76 = load ptr, ptr %8, align 8, !tbaa !22
  %77 = getelementptr inbounds nuw %struct.VarBlurContext, ptr %76, i32 0, i32 8
  %78 = load i32, ptr %13, align 4, !tbaa !24
  %79 = sext i32 %78 to i64
  %80 = getelementptr inbounds [4 x ptr], ptr %77, i64 0, i64 %79
  %81 = load ptr, ptr %80, align 8, !tbaa !62
  store ptr %81, ptr %17, align 8, !tbaa !62
  call void @llvm.lifetime.start.p0(i64 4, ptr %18) #10
  %82 = load ptr, ptr %8, align 8, !tbaa !22
  %83 = getelementptr inbounds nuw %struct.VarBlurContext, ptr %82, i32 0, i32 9
  %84 = load i32, ptr %13, align 4, !tbaa !24
  %85 = sext i32 %84 to i64
  %86 = getelementptr inbounds [4 x i32], ptr %83, i64 0, i64 %85
  %87 = load i32, ptr %86, align 4, !tbaa !24
  store i32 %87, ptr %18, align 4, !tbaa !24
  call void @llvm.lifetime.start.p0(i64 8, ptr %19) #10
  %88 = load ptr, ptr %6, align 8, !tbaa !99
  %89 = getelementptr inbounds nuw %struct.AVFrame, ptr %88, i32 0, i32 0
  %90 = load i32, ptr %13, align 4, !tbaa !24
  %91 = sext i32 %90 to i64
  %92 = getelementptr inbounds [8 x ptr], ptr %89, i64 0, i64 %91
  %93 = load ptr, ptr %92, align 8, !tbaa !62
  store ptr %93, ptr %19, align 8, !tbaa !62
  %94 = load ptr, ptr %8, align 8, !tbaa !22
  %95 = getelementptr inbounds nuw %struct.VarBlurContext, ptr %94, i32 0, i32 4
  %96 = load i32, ptr %95, align 8, !tbaa !102
  %97 = load i32, ptr %13, align 4, !tbaa !24
  %98 = shl i32 1, %97
  %99 = and i32 %96, %98
  %100 = icmp ne i32 %99, 0
  br i1 %100, label %102, label %101

101:                                              ; preds = %57
  store i32 4, ptr %12, align 4
  br label %112

102:                                              ; preds = %57
  %103 = load ptr, ptr %8, align 8, !tbaa !22
  %104 = getelementptr inbounds nuw %struct.VarBlurContext, ptr %103, i32 0, i32 11
  %105 = load ptr, ptr %104, align 8, !tbaa !57
  %106 = load ptr, ptr %19, align 8, !tbaa !62
  %107 = load i32, ptr %16, align 4, !tbaa !24
  %108 = load i32, ptr %15, align 4, !tbaa !24
  %109 = load i32, ptr %14, align 4, !tbaa !24
  %110 = load ptr, ptr %17, align 8, !tbaa !62
  %111 = load i32, ptr %18, align 4, !tbaa !24
  call void %105(ptr noundef %106, i32 noundef %107, i32 noundef %108, i32 noundef %109, ptr noundef %110, i32 noundef %111)
  store i32 0, ptr %12, align 4
  br label %112

112:                                              ; preds = %102, %101
  call void @llvm.lifetime.end.p0(i64 8, ptr %19) #10
  call void @llvm.lifetime.end.p0(i64 4, ptr %18) #10
  call void @llvm.lifetime.end.p0(i64 8, ptr %17) #10
  call void @llvm.lifetime.end.p0(i64 4, ptr %16) #10
  call void @llvm.lifetime.end.p0(i64 4, ptr %15) #10
  call void @llvm.lifetime.end.p0(i64 4, ptr %14) #10
  %113 = load i32, ptr %12, align 4
  switch i32 %113, label %154 [
    i32 0, label %114
    i32 4, label %115
  ]

114:                                              ; preds = %112
  br label %115

115:                                              ; preds = %114, %112
  %116 = load i32, ptr %13, align 4, !tbaa !24
  %117 = add nsw i32 %116, 1
  store i32 %117, ptr %13, align 4, !tbaa !24
  br label %50, !llvm.loop !103

118:                                              ; preds = %56
  %119 = load ptr, ptr %6, align 8, !tbaa !99
  %120 = getelementptr inbounds nuw %struct.ThreadData, ptr %10, i32 0, i32 0
  store ptr %119, ptr %120, align 8, !tbaa !104
  %121 = load ptr, ptr %11, align 8, !tbaa !99
  %122 = getelementptr inbounds nuw %struct.ThreadData, ptr %10, i32 0, i32 1
  store ptr %121, ptr %122, align 8, !tbaa !106
  %123 = load ptr, ptr %7, align 8, !tbaa !99
  %124 = getelementptr inbounds nuw %struct.ThreadData, ptr %10, i32 0, i32 2
  store ptr %123, ptr %124, align 8, !tbaa !107
  %125 = load ptr, ptr %5, align 8, !tbaa !4
  %126 = load ptr, ptr %8, align 8, !tbaa !22
  %127 = getelementptr inbounds nuw %struct.VarBlurContext, ptr %126, i32 0, i32 7
  %128 = getelementptr inbounds [4 x i32], ptr %127, i64 0, i64 1
  %129 = load i32, ptr %128, align 4, !tbaa !24
  %130 = load ptr, ptr %5, align 8, !tbaa !4
  %131 = call i32 @ff_filter_get_nb_threads(ptr noundef %130) #12
  %132 = icmp sgt i32 %129, %131
  br i1 %132, label %133, label %136

133:                                              ; preds = %118
  %134 = load ptr, ptr %5, align 8, !tbaa !4
  %135 = call i32 @ff_filter_get_nb_threads(ptr noundef %134) #12
  br label %141

136:                                              ; preds = %118
  %137 = load ptr, ptr %8, align 8, !tbaa !22
  %138 = getelementptr inbounds nuw %struct.VarBlurContext, ptr %137, i32 0, i32 7
  %139 = getelementptr inbounds [4 x i32], ptr %138, i64 0, i64 1
  %140 = load i32, ptr %139, align 4, !tbaa !24
  br label %141

141:                                              ; preds = %136, %133
  %142 = phi i32 [ %135, %133 ], [ %140, %136 ]
  %143 = call i32 @ff_filter_execute(ptr noundef %125, ptr noundef @blur_planes, ptr noundef %10, ptr noundef null, i32 noundef %142)
  %144 = load ptr, ptr %11, align 8, !tbaa !99
  %145 = load ptr, ptr %6, align 8, !tbaa !99
  %146 = icmp ne ptr %144, %145
  br i1 %146, label %147, label %148

147:                                              ; preds = %141
  call void @av_frame_free(ptr noundef %6)
  br label %148

148:                                              ; preds = %147, %141
  %149 = load ptr, ptr %9, align 8, !tbaa !27
  %150 = load ptr, ptr %11, align 8, !tbaa !99
  %151 = call i32 @ff_filter_frame(ptr noundef %149, ptr noundef %150)
  store i32 %151, ptr %4, align 4
  store i32 1, ptr %12, align 4
  br label %152

152:                                              ; preds = %148, %44
  call void @llvm.lifetime.end.p0(i64 8, ptr %11) #10
  call void @llvm.lifetime.end.p0(i64 24, ptr %10) #10
  call void @llvm.lifetime.end.p0(i64 8, ptr %9) #10
  call void @llvm.lifetime.end.p0(i64 8, ptr %8) #10
  %153 = load i32, ptr %4, align 4
  ret i32 %153

154:                                              ; preds = %112
  unreachable
}

; Function Attrs: nounwind uwtable
define internal i32 @varblur_frame(ptr noundef %0) #0 {
  %2 = alloca i32, align 4
  %3 = alloca ptr, align 8
  %4 = alloca ptr, align 8
  %5 = alloca ptr, align 8
  %6 = alloca ptr, align 8
  %7 = alloca ptr, align 8
  %8 = alloca i32, align 4
  %9 = alloca i32, align 4
  store ptr %0, ptr %3, align 8, !tbaa !96
  call void @llvm.lifetime.start.p0(i64 8, ptr %4) #10
  %10 = load ptr, ptr %3, align 8, !tbaa !96
  %11 = getelementptr inbounds nuw %struct.FFFrameSync, ptr %10, i32 0, i32 1
  %12 = load ptr, ptr %11, align 8, !tbaa !98
  store ptr %12, ptr %4, align 8, !tbaa !4
  call void @llvm.lifetime.start.p0(i64 8, ptr %5) #10
  %13 = load ptr, ptr %4, align 8, !tbaa !4
  %14 = getelementptr inbounds nuw %struct.AVFilterContext, ptr %13, i32 0, i32 9
  %15 = load ptr, ptr %14, align 8, !tbaa !9
  store ptr %15, ptr %5, align 8, !tbaa !22
  call void @llvm.lifetime.start.p0(i64 8, ptr %6) #10
  call void @llvm.lifetime.start.p0(i64 8, ptr %7) #10
  call void @llvm.lifetime.start.p0(i64 4, ptr %8) #10
  %16 = load ptr, ptr %5, align 8, !tbaa !22
  %17 = getelementptr inbounds nuw %struct.VarBlurContext, ptr %16, i32 0, i32 3
  %18 = load i32, ptr %17, align 4, !tbaa !70
  %19 = load ptr, ptr %5, align 8, !tbaa !22
  %20 = getelementptr inbounds nuw %struct.VarBlurContext, ptr %19, i32 0, i32 2
  %21 = load i32, ptr %20, align 8, !tbaa !67
  %22 = icmp sle i32 %18, %21
  br i1 %22, label %23, label %30

23:                                               ; preds = %1
  %24 = load ptr, ptr %5, align 8, !tbaa !22
  %25 = getelementptr inbounds nuw %struct.VarBlurContext, ptr %24, i32 0, i32 2
  %26 = load i32, ptr %25, align 8, !tbaa !67
  %27 = add nsw i32 %26, 1
  %28 = load ptr, ptr %5, align 8, !tbaa !22
  %29 = getelementptr inbounds nuw %struct.VarBlurContext, ptr %28, i32 0, i32 3
  store i32 %27, ptr %29, align 4, !tbaa !70
  br label %30

30:                                               ; preds = %23, %1
  %31 = load ptr, ptr %3, align 8, !tbaa !96
  %32 = call i32 @ff_framesync_dualinput_get(ptr noundef %31, ptr noundef %6, ptr noundef %7)
  store i32 %32, ptr %8, align 4, !tbaa !24
  %33 = load i32, ptr %8, align 4, !tbaa !24
  %34 = icmp slt i32 %33, 0
  br i1 %34, label %35, label %37

35:                                               ; preds = %30
  %36 = load i32, ptr %8, align 4, !tbaa !24
  store i32 %36, ptr %2, align 4
  store i32 1, ptr %9, align 4
  br label %53

37:                                               ; preds = %30
  %38 = load ptr, ptr %7, align 8, !tbaa !99
  %39 = icmp ne ptr %38, null
  br i1 %39, label %48, label %40

40:                                               ; preds = %37
  %41 = load ptr, ptr %4, align 8, !tbaa !4
  %42 = getelementptr inbounds nuw %struct.AVFilterContext, ptr %41, i32 0, i32 7
  %43 = load ptr, ptr %42, align 8, !tbaa !101
  %44 = getelementptr inbounds ptr, ptr %43, i64 0
  %45 = load ptr, ptr %44, align 8, !tbaa !27
  %46 = load ptr, ptr %6, align 8, !tbaa !99
  %47 = call i32 @ff_filter_frame(ptr noundef %45, ptr noundef %46)
  store i32 %47, ptr %2, align 4
  store i32 1, ptr %9, align 4
  br label %53

48:                                               ; preds = %37
  %49 = load ptr, ptr %4, align 8, !tbaa !4
  %50 = load ptr, ptr %6, align 8, !tbaa !99
  %51 = load ptr, ptr %7, align 8, !tbaa !99
  %52 = call i32 @blur_frame(ptr noundef %49, ptr noundef %50, ptr noundef %51)
  store i32 %52, ptr %2, align 4
  store i32 1, ptr %9, align 4
  br label %53

53:                                               ; preds = %48, %40, %35
  call void @llvm.lifetime.end.p0(i64 4, ptr %8) #10
  call void @llvm.lifetime.end.p0(i64 8, ptr %7) #10
  call void @llvm.lifetime.end.p0(i64 8, ptr %6) #10
  call void @llvm.lifetime.end.p0(i64 8, ptr %5) #10
  call void @llvm.lifetime.end.p0(i64 8, ptr %4) #10
  %54 = load i32, ptr %2, align 4
  ret i32 %54
}