; Function Attrs: nounwind uwtable
define internal i32 @varblur_frame(ptr noundef %0) #0 {
  %2 = alloca ptr, align 8
  %3 = alloca %struct.ThreadData, align 8
  %4 = alloca ptr, align 8
  %5 = alloca ptr, align 8
  %6 = getelementptr inbounds nuw i8, ptr %0, i64 8
  %7 = load ptr, ptr %6, align 8, !tbaa !79
  %8 = getelementptr inbounds nuw i8, ptr %7, i64 72
  %9 = load ptr, ptr %8, align 8, !tbaa !4
  call void @llvm.lifetime.start.p0(i64 8, ptr nonnull %4) #10
  call void @llvm.lifetime.start.p0(i64 8, ptr nonnull %5) #10
  %10 = getelementptr inbounds nuw i8, ptr %9, i64 108
  %11 = load i32, ptr %10, align 4, !tbaa !58
  %12 = getelementptr inbounds nuw i8, ptr %9, i64 104
  %13 = load i32, ptr %12, align 8, !tbaa !57
  %.not = icmp sgt i32 %11, %13
  br i1 %.not, label %16, label %14

14:                                               ; preds = %1
  %15 = add nsw i32 %13, 1
  store i32 %15, ptr %10, align 4, !tbaa !58
  br label %16

16:                                               ; preds = %14, %1
  %17 = call i32 @ff_framesync_dualinput_get(ptr noundef nonnull %0, ptr noundef nonnull %4, ptr noundef nonnull %5) #10
  %18 = icmp slt i32 %17, 0
  br i1 %18, label %88, label %19

19:                                               ; preds = %16
  %20 = load ptr, ptr %5, align 8, !tbaa !80
  %.not14 = icmp eq ptr %20, null
  br i1 %.not14, label %21, label %27

21:                                               ; preds = %19
  %22 = getelementptr inbounds nuw i8, ptr %7, i64 56
  %23 = load ptr, ptr %22, align 8, !tbaa !82
  %24 = load ptr, ptr %23, align 8, !tbaa !32
  %25 = load ptr, ptr %4, align 8, !tbaa !80
  %26 = call i32 @ff_filter_frame(ptr noundef %24, ptr noundef %25) #10
  br label %88

27:                                               ; preds = %19
  %28 = load ptr, ptr %4, align 8, !tbaa !80
  call void @llvm.lifetime.start.p0(i64 8, ptr nonnull %2)
  store ptr %28, ptr %2, align 8, !tbaa !80
  %29 = load ptr, ptr %8, align 8, !tbaa !4
  %30 = getelementptr inbounds nuw i8, ptr %7, i64 56
  %31 = load ptr, ptr %30, align 8, !tbaa !82
  %32 = load ptr, ptr %31, align 8, !tbaa !32
  call void @llvm.lifetime.start.p0(i64 24, ptr nonnull %3) #10
  %33 = call i32 @av_frame_is_writable(ptr noundef %28) #10
  %.not.i = icmp eq i32 %33, 0
  br i1 %.not.i, label %34, label %43

34:                                               ; preds = %27
  %35 = getelementptr inbounds nuw i8, ptr %32, i64 40
  %36 = load i32, ptr %35, align 8, !tbaa !35
  %37 = getelementptr inbounds nuw i8, ptr %32, i64 44
  %38 = load i32, ptr %37, align 4, !tbaa !36
  %39 = call ptr @ff_get_video_buffer(ptr noundef %32, i32 noundef %36, i32 noundef %38) #10
  %.not44.i = icmp eq ptr %39, null
  br i1 %.not44.i, label %40, label %41

40:                                               ; preds = %34
  call void @av_frame_free(ptr noundef nonnull %2) #10
  br label %blur_frame.exit

41:                                               ; preds = %34
  %42 = call i32 @av_frame_copy_props(ptr noundef nonnull %39, ptr noundef %28) #10
  br label %43

43:                                               ; preds = %41, %27
  %.039.i = phi ptr [ %39, %41 ], [ %28, %27 ]
  %44 = getelementptr inbounds nuw i8, ptr %29, i64 200
  %45 = load i32, ptr %44, align 8, !tbaa !53
  %46 = icmp sgt i32 %45, 0
  br i1 %46, label %.lr.ph.i, label %._crit_edge.i

.lr.ph.i:                                         ; preds = %43
  %47 = getelementptr inbounds nuw i8, ptr %29, i64 112
  %48 = getelementptr inbounds nuw i8, ptr %29, i64 184
  %49 = getelementptr inbounds nuw i8, ptr %29, i64 152
  %50 = getelementptr inbounds nuw i8, ptr %28, i64 64
  %51 = getelementptr inbounds nuw i8, ptr %29, i64 120
  %52 = getelementptr inbounds nuw i8, ptr %29, i64 136
  %53 = getelementptr inbounds nuw i8, ptr %29, i64 208
  br label %61

._crit_edge.i:                                    ; preds = %81, %43
  store ptr %28, ptr %3, align 8, !tbaa !83
  %54 = getelementptr inbounds nuw i8, ptr %3, i64 8
  store ptr %.039.i, ptr %54, align 8, !tbaa !85
  %55 = getelementptr inbounds nuw i8, ptr %3, i64 16
  store ptr %20, ptr %55, align 8, !tbaa !86
  %56 = getelementptr inbounds nuw i8, ptr %29, i64 140
  %57 = load i32, ptr %56, align 4, !tbaa !51
  %58 = call i32 @ff_filter_get_nb_threads(ptr noundef %7) #11
  %..i = call i32 @llvm.smin.i32(i32 %57, i32 %58)
  %59 = call i32 @ff_filter_execute(ptr noundef %7, ptr noundef nonnull @blur_planes, ptr noundef nonnull %3, ptr noundef null, i32 noundef %..i) #10
  %60 = load ptr, ptr %2, align 8, !tbaa !80
  %.not45.i = icmp eq ptr %.039.i, %60
  br i1 %.not45.i, label %86, label %85

61:                                               ; preds = %81, %.lr.ph.i
  %62 = phi i32 [ %45, %.lr.ph.i ], [ %82, %81 ]
  %indvars.iv.i = phi i64 [ 0, %.lr.ph.i ], [ %indvars.iv.next.i, %81 ]
  %63 = load i32, ptr %47, align 8, !tbaa !87
  %64 = trunc nuw nsw i64 %indvars.iv.i to i32
  %65 = shl nuw i32 1, %64
  %66 = and i32 %65, %63
  %.not46.i = icmp eq i32 %66, 0
  br i1 %.not46.i, label %81, label %67

67:                                               ; preds = %61
  %68 = getelementptr inbounds nuw [8 x ptr], ptr %28, i64 0, i64 %indvars.iv.i
  %69 = load ptr, ptr %68, align 8, !tbaa !55
  %70 = getelementptr inbounds nuw [4 x i32], ptr %48, i64 0, i64 %indvars.iv.i
  %71 = load i32, ptr %70, align 4, !tbaa !51
  %72 = getelementptr inbounds nuw [4 x ptr], ptr %49, i64 0, i64 %indvars.iv.i
  %73 = load ptr, ptr %72, align 8, !tbaa !55
  %74 = getelementptr inbounds nuw [8 x i32], ptr %50, i64 0, i64 %indvars.iv.i
  %75 = load i32, ptr %74, align 4, !tbaa !51
  %76 = getelementptr inbounds nuw [4 x i32], ptr %51, i64 0, i64 %indvars.iv.i
  %77 = load i32, ptr %76, align 4, !tbaa !51
  %78 = getelementptr inbounds nuw [4 x i32], ptr %52, i64 0, i64 %indvars.iv.i
  %79 = load i32, ptr %78, align 4, !tbaa !51
  %80 = load ptr, ptr %53, align 8, !tbaa !48
  call void %80(ptr noundef %69, i32 noundef %75, i32 noundef %77, i32 noundef %79, ptr noundef %73, i32 noundef %71) #10
  %.pre.i = load i32, ptr %44, align 8, !tbaa !53
  br label %81

81:                                               ; preds = %67, %61
  %82 = phi i32 [ %62, %61 ], [ %.pre.i, %67 ]
  %indvars.iv.next.i = add nuw nsw i64 %indvars.iv.i, 1
  %83 = sext i32 %82 to i64
  %84 = icmp slt i64 %indvars.iv.next.i, %83
  br i1 %84, label %61, label %._crit_edge.i, !llvm.loop !88

85:                                               ; preds = %._crit_edge.i
  call void @av_frame_free(ptr noundef nonnull %2) #10
  br label %86

86:                                               ; preds = %85, %._crit_edge.i
  %87 = call i32 @ff_filter_frame(ptr noundef %32, ptr noundef %.039.i) #10
  br label %blur_frame.exit

blur_frame.exit:                                  ; preds = %40, %86
  %.0.i = phi i32 [ %87, %86 ], [ -12, %40 ]
  call void @llvm.lifetime.end.p0(i64 24, ptr nonnull %3) #10
  call void @llvm.lifetime.end.p0(i64 8, ptr nonnull %2)
  br label %88

88:                                               ; preds = %16, %blur_frame.exit, %21
  %.0 = phi i32 [ %.0.i, %blur_frame.exit ], [ %26, %21 ], [ %17, %16 ]
  call void @llvm.lifetime.end.p0(i64 8, ptr nonnull %5) #10
  call void @llvm.lifetime.end.p0(i64 8, ptr nonnull %4) #10
  ret i32 %.0
}